; Function Attrs: mustprogress nounwind willreturn memory(readwrite, argmem: none) uwtable
define internal fastcc noalias noundef ptr @arkodeSymplecticMcLachlan2() unnamed_addr #2 {
  %calloc.i = tail call dereferenceable_or_null(24) ptr @calloc(i64 1, i64 24)
  %.not.i = icmp eq ptr %calloc.i, null
  br i1 %.not.i, label %ARKodeSPRKTable_Alloc.exit.thread, label %1

1:                                                ; preds = %0
  %2 = tail call noalias dereferenceable_or_null(16) ptr @malloc(i64 noundef 16) #13
  %3 = getelementptr inbounds nuw i8, ptr %calloc.i, i64 16
  store ptr %2, ptr %3, align 8, !tbaa !3
  %.not14.i = icmp eq ptr %2, null
  br i1 %.not14.i, label %ARKodeSPRKTable_Free.exit.i, label %4

ARKodeSPRKTable_Free.exit.i:                      ; preds = %1
  tail call void @free(ptr noundef nonnull %calloc.i) #14
  br label %ARKodeSPRKTable_Alloc.exit.thread

4:                                                ; preds = %1
  %5 = tail call noalias dereferenceable_or_null(16) ptr @malloc(i64 noundef 16) #13
  %6 = getelementptr inbounds nuw i8, ptr %calloc.i, i64 8
  store ptr %5, ptr %6, align 8, !tbaa !10
  %.not15.i = icmp eq ptr %5, null
  br i1 %.not15.i, label %ARKodeSPRKTable_Free.exit19.i, label %7

ARKodeSPRKTable_Free.exit19.i:                    ; preds = %4
  tail call void @free(ptr noundef nonnull %2) #14
  tail call void @free(ptr noundef nonnull %calloc.i) #14
  br label %ARKodeSPRKTable_Alloc.exit.thread

7:                                                ; preds = %4
  %8 = getelementptr inbounds nuw i8, ptr %calloc.i, i64 4
  store i32 2, ptr %calloc.i, align 8, !tbaa !12
  store i32 2, ptr %8, align 4, !tbaa !11
  %9 = getelementptr inbounds nuw i8, ptr %5, i64 8
  store double 0x3FD2BEC333018866, ptr %9, align 8, !tbaa !13
  store double 0x3FE6A09E667F3BCD, ptr %5, align 8, !tbaa !13
  %10 = getelementptr inbounds nuw i8, ptr %2, i64 8
  store double 0x3FE6A09E667F3BCC, ptr %10, align 8, !tbaa !13
  store double 0x3FD2BEC333018868, ptr %2, align 8, !tbaa !13
  br label %ARKodeSPRKTable_Alloc.exit.thread

ARKodeSPRKTable_Alloc.exit.thread:                ; preds = %0, %ARKodeSPRKTable_Free.exit.i, %ARKodeSPRKTable_Free.exit19.i, %7
  %.0 = phi ptr [ %calloc.i, %7 ], [ null, %ARKodeSPRKTable_Free.exit19.i ], [ null, %ARKodeSPRKTable_Free.exit.i ], [ null, %0 ]
  ret ptr %.0
}